target datalayout = "e-m:e-p270:32:32-p271:32:32-p272:64:64-i64:64-i128:128-f80:128-n8:16:32:64-S128"
target triple = "x86_64-pc-linux-gnu"

%struct.SparseMatrix_struct = type { i32, i32, i32, i32, i32, ptr, ptr, ptr, i32, i8, i64 }
%struct.StressMajorizationSmoother_struct = type { ptr, ptr, ptr, ptr, ptr, ptr, i32, double, double, double }
%struct.SpringSmoother_struct = type { ptr, ptr }
%struct.spring_electrical_control_struct = type { double, double, i32, i32, i32, double, i32, i8, i32, i32, i8, i32, double, double, i32 }

; Function Attrs: nounwind uwtable
define void @SpringSmoother_delete(ptr noundef %0) #0 {
  %2 = alloca ptr, align 8
  store ptr %0, ptr %2, align 8, !tbaa !114
  %3 = load ptr, ptr %2, align 8, !tbaa !114
  %4 = icmp ne ptr %3, null
  br i1 %4, label %6, label %5

5:                                                ; preds = %1
  br label %24

6:                                                ; preds = %1
  %7 = load ptr, ptr %2, align 8, !tbaa !114
  %8 = getelementptr inbounds nuw %struct.SpringSmoother_struct, ptr %7, i32 0, i32 0
  %9 = load ptr, ptr %8, align 8, !tbaa !123
  %10 = icmp ne ptr %9, null
  br i1 %10, label %11, label %15

11:                                               ; preds = %6
  %12 = load ptr, ptr %2, align 8, !tbaa !114
  %13 = getelementptr inbounds nuw %struct.SpringSmoother_struct, ptr %12, i32 0, i32 0
  %14 = load ptr, ptr %13, align 8, !tbaa !123
  call void @SparseMatrix_delete(ptr noundef %14)
  br label %15

15:                                               ; preds = %11, %6
  %16 = load ptr, ptr %2, align 8, !tbaa !114
  %17 = getelementptr inbounds nuw %struct.SpringSmoother_struct, ptr %16, i32 0, i32 1
  %18 = load ptr, ptr %17, align 8, !tbaa !129
  %19 = icmp ne ptr %18, null
  br i1 %19, label %20, label %24

20:                                               ; preds = %15
  %21 = load ptr, ptr %2, align 8, !tbaa !114
  %22 = getelementptr inbounds nuw %struct.SpringSmoother_struct, ptr %21, i32 0, i32 1
  %23 = load ptr, ptr %22, align 8, !tbaa !129
  call void @spring_electrical_control_delete(ptr noundef %23)
  br label %24

24:                                               ; preds = %5, %20, %15
  ret void
}

; Function Attrs: nounwind uwtable
define void @SpringSmoother_smooth(ptr noundef %0, ptr noundef %1, i32 noundef %2, ptr noundef %3) #0 {
  %5 = alloca ptr, align 8
  %6 = alloca ptr, align 8
  %7 = alloca i32, align 4
  %8 = alloca ptr, align 8
  %9 = alloca i32, align 4
  store ptr %0, ptr %5, align 8, !tbaa !114
  store ptr %1, ptr %6, align 8, !tbaa !3
  store i32 %2, ptr %7, align 4, !tbaa !8
  store ptr %3, ptr %8, align 8, !tbaa !12
  call void @llvm.lifetime.start.p0(i64 4, ptr %9) #10
  store i32 0, ptr %9, align 4, !tbaa !8
  %10 = load i32, ptr %7, align 4, !tbaa !8
  %11 = load ptr, ptr %6, align 8, !tbaa !3
  %12 = load ptr, ptr %5, align 8, !tbaa !114
  %13 = getelementptr inbounds nuw %struct.SpringSmoother_struct, ptr %12, i32 0, i32 0
  %14 = load ptr, ptr %13, align 8, !tbaa !123
  %15 = load ptr, ptr %5, align 8, !tbaa !114
  %16 = getelementptr inbounds nuw %struct.SpringSmoother_struct, ptr %15, i32 0, i32 1
  %17 = load ptr, ptr %16, align 8, !tbaa !129
  %18 = load ptr, ptr %8, align 8, !tbaa !12
  call void @spring_electrical_spring_embedding(i32 noundef %10, ptr noundef %11, ptr noundef %14, ptr noundef %17, ptr noundef %18, ptr noundef %9)
  call void @llvm.lifetime.end.p0(i64 4, ptr %9) #10
  ret void
}

; Function Attrs: nounwind uwtable
define void @StressMajorizationSmoother_delete(ptr noundef %0) #0 {
  %2 = alloca ptr, align 8
  store ptr %0, ptr %2, align 8, !tbaa !22
  %3 = load ptr, ptr %2, align 8, !tbaa !22
  %4 = icmp ne ptr %3, null
  br i1 %4, label %6, label %5

5:                                                ; preds = %1
  br label %41

6:                                                ; preds = %1
  %7 = load ptr, ptr %2, align 8, !tbaa !22
  %8 = getelementptr inbounds nuw %struct.StressMajorizationSmoother_struct, ptr %7, i32 0, i32 1
  %9 = load ptr, ptr %8, align 8, !tbaa !40
  %10 = icmp ne ptr %9, null
  br i1 %10, label %11, label %15

11:                                               ; preds = %6
  %12 = load ptr, ptr %2, align 8, !tbaa !22
  %13 = getelementptr inbounds nuw %struct.StressMajorizationSmoother_struct, ptr %12, i32 0, i32 1
  %14 = load ptr, ptr %13, align 8, !tbaa !40
  call void @SparseMatrix_delete(ptr noundef %14)
  br label %15

15:                                               ; preds = %11, %6
  %16 = load ptr, ptr %2, align 8, !tbaa !22
  %17 = getelementptr inbounds nuw %struct.StressMajorizationSmoother_struct, ptr %16, i32 0, i32 2
  %18 = load ptr, ptr %17, align 8, !tbaa !41
  %19 = icmp ne ptr %18, null
  br i1 %19, label %20, label %24

20:                                               ; preds = %15
  %21 = load ptr, ptr %2, align 8, !tbaa !22
  %22 = getelementptr inbounds nuw %struct.StressMajorizationSmoother_struct, ptr %21, i32 0, i32 2
  %23 = load ptr, ptr %22, align 8, !tbaa !41
  call void @SparseMatrix_delete(ptr noundef %23)
  br label %24

24:                                               ; preds = %20, %15
  %25 = load ptr, ptr %2, align 8, !tbaa !22
  %26 = getelementptr inbounds nuw %struct.StressMajorizationSmoother_struct, ptr %25, i32 0, i32 3
  %27 = load ptr, ptr %26, align 8, !tbaa !30
  call void @free(ptr noundef %27) #10
  %28 = load ptr, ptr %2, align 8, !tbaa !22
  %29 = getelementptr inbounds nuw %struct.StressMajorizationSmoother_struct, ptr %28, i32 0, i32 5
  %30 = load ptr, ptr %29, align 8, !tbaa !26
  %31 = icmp ne ptr %30, null
  br i1 %31, label %32, label %39

32:                                               ; preds = %24
  %33 = load ptr, ptr %2, align 8, !tbaa !22
  %34 = getelementptr inbounds nuw %struct.StressMajorizationSmoother_struct, ptr %33, i32 0, i32 4
  %35 = load ptr, ptr %34, align 8, !tbaa !63
  %36 = load ptr, ptr %2, align 8, !tbaa !22
  %37 = getelementptr inbounds nuw %struct.StressMajorizationSmoother_struct, ptr %36, i32 0, i32 5
  %38 = load ptr, ptr %37, align 8, !tbaa !26
  call void %35(ptr noundef %38)
  br label %39

39:                                               ; preds = %32, %24
  %40 = load ptr, ptr %2, align 8, !tbaa !22
  call void @free(ptr noundef %40) #10
  br label %41

41:                                               ; preds = %39, %5
  ret void
}

; Function Attrs: nounwind uwtable
define void @TriangleSmoother_delete(ptr noundef %0) #0 {
  %2 = alloca ptr, align 8
  store ptr %0, ptr %2, align 8, !tbaa !22
  %3 = load ptr, ptr %2, align 8, !tbaa !22
  call void @StressMajorizationSmoother_delete(ptr noundef %3)
  ret void
}

; Function Attrs: nounwind uwtable
define void @TriangleSmoother_smooth(ptr noundef %0, i32 noundef %1, ptr noundef %2) #0 {
  %4 = alloca ptr, align 8
  %5 = alloca i32, align 4
  %6 = alloca ptr, align 8
  store ptr %0, ptr %4, align 8, !tbaa !22
  store i32 %1, ptr %5, align 4, !tbaa !8
  store ptr %2, ptr %6, align 8, !tbaa !12
  %7 = load ptr, ptr %4, align 8, !tbaa !22
  %8 = load i32, ptr %5, align 4, !tbaa !8
  %9 = load ptr, ptr %6, align 8, !tbaa !12
  %10 = call double @StressMajorizationSmoother_smooth(ptr noundef %7, i32 noundef %8, ptr noundef %9, i32 noundef 50)
  ret void
}

; Function Attrs: nounwind uwtable
define void @post_process_smoothing(i32 noundef %0, ptr noundef %1, ptr noundef %2, ptr noundef %3) #0 {
  %5 = alloca i32, align 4
  %6 = alloca ptr, align 8
  %7 = alloca ptr, align 8
  %8 = alloca ptr, align 8
  %9 = alloca ptr, align 8
  %10 = alloca ptr, align 8
  %11 = alloca i32, align 4
  %12 = alloca ptr, align 8
  store i32 %0, ptr %5, align 4, !tbaa !8
  store ptr %1, ptr %6, align 8, !tbaa !3
  store ptr %2, ptr %7, align 8, !tbaa !112
  store ptr %3, ptr %8, align 8, !tbaa !12
  %13 = load ptr, ptr %7, align 8, !tbaa !112
  %14 = getelementptr inbounds nuw %struct.spring_electrical_control_struct, ptr %13, i32 0, i32 8
  %15 = load i32, ptr %14, align 8, !tbaa !136
  switch i32 %15, label %84 [
    i32 6, label %16
    i32 5, label %16
    i32 1, label %42
    i32 3, label %42
    i32 2, label %42
    i32 4, label %73
  ]

16:                                               ; preds = %4, %4
  call void @llvm.lifetime.start.p0(i64 8, ptr %9) #10
  %17 = load ptr, ptr %6, align 8, !tbaa !3
  %18 = getelementptr inbounds nuw %struct.SparseMatrix_struct, ptr %17, i32 0, i32 0
  %19 = load i32, ptr %18, align 8, !tbaa !14
  %20 = icmp sgt i32 %19, 2
  br i1 %20, label %21, label %41

21:                                               ; preds = %16
  %22 = load ptr, ptr %7, align 8, !tbaa !112
  %23 = getelementptr inbounds nuw %struct.spring_electrical_control_struct, ptr %22, i32 0, i32 8
  %24 = load i32, ptr %23, align 8, !tbaa !136
  %25 = icmp eq i32 %24, 6
  br i1 %25, label %26, label %31

26:                                               ; preds = %21
  %27 = load ptr, ptr %6, align 8, !tbaa !3
  %28 = load i32, ptr %5, align 4, !tbaa !8
  %29 = load ptr, ptr %8, align 8, !tbaa !12
  %30 = call ptr @TriangleSmoother_new(ptr noundef %27, i32 noundef %28, ptr noundef %29, i1 noundef zeroext false)
  store ptr %30, ptr %9, align 8, !tbaa !22
  br label %36

31:                                               ; preds = %21
  %32 = load ptr, ptr %6, align 8, !tbaa !3
  %33 = load i32, ptr %5, align 4, !tbaa !8
  %34 = load ptr, ptr %8, align 8, !tbaa !12
  %35 = call ptr @TriangleSmoother_new(ptr noundef %32, i32 noundef %33, ptr noundef %34, i1 noundef zeroext true)
  store ptr %35, ptr %9, align 8, !tbaa !22
  br label %36

36:                                               ; preds = %31, %26
  %37 = load ptr, ptr %9, align 8, !tbaa !22
  %38 = load i32, ptr %5, align 4, !tbaa !8
  %39 = load ptr, ptr %8, align 8, !tbaa !12
  call void @TriangleSmoother_smooth(ptr noundef %37, i32 noundef %38, ptr noundef %39)
  %40 = load ptr, ptr %9, align 8, !tbaa !22
  call void @TriangleSmoother_delete(ptr noundef %40)
  br label %41

41:                                               ; preds = %36, %16
  call void @llvm.lifetime.end.p0(i64 8, ptr %9) #10
  br label %84

42:                                               ; preds = %4, %4, %4
  call void @llvm.lifetime.start.p0(i64 8, ptr %10) #10
  call void @llvm.lifetime.start.p0(i64 4, ptr %11) #10
  store i32 1, ptr %11, align 4, !tbaa !8
  %43 = load ptr, ptr %7, align 8, !tbaa !112
  %44 = getelementptr inbounds nuw %struct.spring_electrical_control_struct, ptr %43, i32 0, i32 8
  %45 = load i32, ptr %44, align 8, !tbaa !136
  %46 = icmp eq i32 %45, 1
  br i1 %46, label %47, label %48

47:                                               ; preds = %42
  store i32 0, ptr %11, align 4, !tbaa !8
  br label %62

48:                                               ; preds = %42
  %49 = load ptr, ptr %7, align 8, !tbaa !112
  %50 = getelementptr inbounds nuw %struct.spring_electrical_control_struct, ptr %49, i32 0, i32 8
  %51 = load i32, ptr %50, align 8, !tbaa !136
  %52 = icmp eq i32 %51, 2
  br i1 %52, label %53, label %54

53:                                               ; preds = %48
  store i32 1, ptr %11, align 4, !tbaa !8
  br label %61

54:                                               ; preds = %48
  %55 = load ptr, ptr %7, align 8, !tbaa !112
  %56 = getelementptr inbounds nuw %struct.spring_electrical_control_struct, ptr %55, i32 0, i32 8
  %57 = load i32, ptr %56, align 8, !tbaa !136
  %58 = icmp eq i32 %57, 3
  br i1 %58, label %59, label %60

59:                                               ; preds = %54
  store i32 2, ptr %11, align 4, !tbaa !8
  br label %60

60:                                               ; preds = %59, %54
  br label %61

61:                                               ; preds = %60, %53
  br label %62

62:                                               ; preds = %61, %47
  %63 = load ptr, ptr %6, align 8, !tbaa !3
  %64 = load i32, ptr %5, align 4, !tbaa !8
  %65 = load ptr, ptr %8, align 8, !tbaa !12
  %66 = load i32, ptr %11, align 4, !tbaa !8
  %67 = call ptr @StressMajorizationSmoother2_new(ptr noundef %63, i32 noundef %64, double noundef 5.000000e-02, ptr noundef %65, i32 noundef %66)
  store ptr %67, ptr %10, align 8, !tbaa !22
  %68 = load ptr, ptr %10, align 8, !tbaa !22
  %69 = load i32, ptr %5, align 4, !tbaa !8
  %70 = load ptr, ptr %8, align 8, !tbaa !12
  %71 = call double @StressMajorizationSmoother_smooth(ptr noundef %68, i32 noundef %69, ptr noundef %70, i32 noundef 50)
  %72 = load ptr, ptr %10, align 8, !tbaa !22
  call void @StressMajorizationSmoother_delete(ptr noundef %72)
  call void @llvm.lifetime.end.p0(i64 4, ptr %11) #10
  call void @llvm.lifetime.end.p0(i64 8, ptr %10) #10
  br label %84

73:                                               ; preds = %4
  call void @llvm.lifetime.start.p0(i64 8, ptr %12) #10
  %74 = load ptr, ptr %6, align 8, !tbaa !3
  %75 = load i32, ptr %5, align 4, !tbaa !8
  %76 = load ptr, ptr %7, align 8, !tbaa !112
  %77 = load ptr, ptr %8, align 8, !tbaa !12
  %78 = call ptr @SpringSmoother_new(ptr noundef %74, i32 noundef %75, ptr noundef %76, ptr noundef %77)
  store ptr %78, ptr %12, align 8, !tbaa !114
  %79 = load ptr, ptr %12, align 8, !tbaa !114
  %80 = load ptr, ptr %6, align 8, !tbaa !3
  %81 = load i32, ptr %5, align 4, !tbaa !8
  %82 = load ptr, ptr %8, align 8, !tbaa !12
  call void @SpringSmoother_smooth(ptr noundef %79, ptr noundef %80, i32 noundef %81, ptr noundef %82)
  %83 = load ptr, ptr %12, align 8, !tbaa !114
  call void @SpringSmoother_delete(ptr noundef %83)
  call void @llvm.lifetime.end.p0(i64 8, ptr %12) #10
  br label %84

84:                                               ; preds = %4, %73, %62, %41
  ret void
}