; Function Attrs: nounwind uwtable
define void @post_process_smoothing(i32 noundef %0, ptr noundef %1, ptr noundef readonly captures(none) %2, ptr noundef %3) local_unnamed_addr #0 {
  %5 = alloca i32, align 4
  %6 = getelementptr inbounds nuw i8, ptr %2, i64 48
  %7 = load i32, ptr %6, align 8, !tbaa !115
  switch i32 %7, label %TriangleSmoother_delete.exit [
    i32 6, label %8
    i32 5, label %8
    i32 1, label %32
    i32 3, label %32
    i32 2, label %32
    i32 4, label %52
  ]

8:                                                ; preds = %4, %4
  %9 = load i32, ptr %1, align 8, !tbaa !3
  %10 = icmp sgt i32 %9, 2
  br i1 %10, label %11, label %TriangleSmoother_delete.exit

11:                                               ; preds = %8
  %12 = icmp ne i32 %7, 6
  %13 = tail call ptr @TriangleSmoother_new(ptr noundef nonnull %1, i32 noundef %0, ptr noundef %3, i1 noundef zeroext %12)
  %14 = tail call double @StressMajorizationSmoother_smooth(ptr noundef readonly %13, i32 noundef %0, ptr noundef %3, i32 noundef 50)
  %.not.i.i = icmp eq ptr %13, null
  br i1 %.not.i.i, label %TriangleSmoother_delete.exit, label %15

15:                                               ; preds = %11
  %16 = getelementptr inbounds nuw i8, ptr %13, i64 8
  %17 = load ptr, ptr %16, align 8, !tbaa !34
  %.not13.i.i = icmp eq ptr %17, null
  br i1 %.not13.i.i, label %19, label %18

18:                                               ; preds = %15
  tail call void @SparseMatrix_delete(ptr noundef nonnull %17) #16
  br label %19

19:                                               ; preds = %18, %15
  %20 = getelementptr inbounds nuw i8, ptr %13, i64 16
  %21 = load ptr, ptr %20, align 8, !tbaa !35
  %.not14.i.i = icmp eq ptr %21, null
  br i1 %.not14.i.i, label %23, label %22

22:                                               ; preds = %19
  tail call void @SparseMatrix_delete(ptr noundef nonnull %21) #16
  br label %23

23:                                               ; preds = %22, %19
  %24 = getelementptr inbounds nuw i8, ptr %13, i64 24
  %25 = load ptr, ptr %24, align 8, !tbaa !24
  tail call void @free(ptr noundef %25) #16
  %26 = getelementptr inbounds nuw i8, ptr %13, i64 40
  %27 = load ptr, ptr %26, align 8, !tbaa !52
  %.not15.i.i = icmp eq ptr %27, null
  br i1 %.not15.i.i, label %31, label %28

28:                                               ; preds = %23
  %29 = getelementptr inbounds nuw i8, ptr %13, i64 32
  %30 = load ptr, ptr %29, align 8, !tbaa !53
  tail call void %30(ptr noundef nonnull %27) #16
  br label %31

31:                                               ; preds = %28, %23
  tail call void @free(ptr noundef nonnull %13) #16
  br label %TriangleSmoother_delete.exit

32:                                               ; preds = %4, %4, %4
  %switch.selectcmp = icmp eq i32 %7, 3
  %switch.select = select i1 %switch.selectcmp, i32 2, i32 1
  %switch.selectcmp34 = icmp eq i32 %7, 1
  %switch.select35 = select i1 %switch.selectcmp34, i32 0, i32 %switch.select
  %33 = tail call ptr @StressMajorizationSmoother2_new(ptr noundef %1, i32 noundef %0, double noundef 5.000000e-02, ptr noundef %3, i32 noundef %switch.select35)
  %34 = tail call double @StressMajorizationSmoother_smooth(ptr noundef %33, i32 noundef %0, ptr noundef %3, i32 noundef 50)
  %.not.i = icmp eq ptr %33, null
  br i1 %.not.i, label %TriangleSmoother_delete.exit, label %35

35:                                               ; preds = %32
  %36 = getelementptr inbounds nuw i8, ptr %33, i64 8
  %37 = load ptr, ptr %36, align 8, !tbaa !34
  %.not13.i = icmp eq ptr %37, null
  br i1 %.not13.i, label %39, label %38

38:                                               ; preds = %35
  tail call void @SparseMatrix_delete(ptr noundef nonnull %37) #16
  br label %39

39:                                               ; preds = %38, %35
  %40 = getelementptr inbounds nuw i8, ptr %33, i64 16
  %41 = load ptr, ptr %40, align 8, !tbaa !35
  %.not14.i = icmp eq ptr %41, null
  br i1 %.not14.i, label %43, label %42

42:                                               ; preds = %39
  tail call void @SparseMatrix_delete(ptr noundef nonnull %41) #16
  br label %43

43:                                               ; preds = %42, %39
  %44 = getelementptr inbounds nuw i8, ptr %33, i64 24
  %45 = load ptr, ptr %44, align 8, !tbaa !24
  tail call void @free(ptr noundef %45) #16
  %46 = getelementptr inbounds nuw i8, ptr %33, i64 40
  %47 = load ptr, ptr %46, align 8, !tbaa !52
  %.not15.i = icmp eq ptr %47, null
  br i1 %.not15.i, label %51, label %48

48:                                               ; preds = %43
  %49 = getelementptr inbounds nuw i8, ptr %33, i64 32
  %50 = load ptr, ptr %49, align 8, !tbaa !53
  tail call void %50(ptr noundef nonnull %47) #16
  br label %51

51:                                               ; preds = %48, %43
  tail call void @free(ptr noundef nonnull %33) #16
  br label %TriangleSmoother_delete.exit

52:                                               ; preds = %4
  %53 = tail call ptr @SpringSmoother_new(ptr noundef %1, i32 noundef %0, ptr noundef nonnull %2, ptr noundef %3)
  call void @llvm.lifetime.start.p0(i64 4, ptr nonnull %5) #16
  store i32 0, ptr %5, align 4, !tbaa !22
  %54 = load ptr, ptr %53, align 8, !tbaa !100
  %55 = getelementptr inbounds nuw i8, ptr %53, i64 8
  %56 = load ptr, ptr %55, align 8, !tbaa !107
  call void @spring_electrical_spring_embedding(i32 noundef %0, ptr noundef %1, ptr noundef %54, ptr noundef %56, ptr noundef %3, ptr noundef nonnull %5) #16
  call void @llvm.lifetime.end.p0(i64 4, ptr nonnull %5) #16
  %.not7.i = icmp eq ptr %54, null
  br i1 %.not7.i, label %58, label %57

57:                                               ; preds = %52
  call void @SparseMatrix_delete(ptr noundef nonnull %54) #16
  br label %58

58:                                               ; preds = %57, %52
  %.not8.i = icmp eq ptr %56, null
  br i1 %.not8.i, label %TriangleSmoother_delete.exit, label %59

59:                                               ; preds = %58
  call void @spring_electrical_control_delete(ptr noundef nonnull %56) #16
  br label %TriangleSmoother_delete.exit

TriangleSmoother_delete.exit:                     ; preds = %59, %58, %51, %32, %31, %11, %8, %4
  ret void
}